target datalayout = "e-m:e-p270:32:32-p271:32:32-p272:64:64-i64:64-i128:128-f80:128-n8:16:32:64-S128"
target triple = "x86_64-pc-linux-gnu"

%"class.vcg::Point3" = type { [3 x float] }
%"class.vcg::Line3" = type { %"class.vcg::Point3", %"class.vcg::Point3" }
%"class.vcg::Ray3" = type { %"class.vcg::Point3", %"class.vcg::Point3" }

; Function Attrs: mustprogress nounwind uwtable
define linkonce_odr noundef float @_ZN3vcg4math4SqrtEf(float noundef %0) #0 comdat {
  %2 = alloca float, align 4
  store float %0, ptr %2, align 4
  %3 = load float, ptr %2, align 4
  %4 = call float @sqrtf(float noundef %3) #7
  ret float %4
}

; Function Attrs: mustprogress uwtable
define linkonce_odr noundef nonnull align 4 dereferenceable(12) ptr @_ZN3vcg6Point3IfE9NormalizeEv(ptr noundef nonnull align 4 dereferenceable(12) %0) #3 comdat align 2 {
  %2 = alloca ptr, align 8
  %3 = alloca float, align 4
  store ptr %0, ptr %2, align 8
  %4 = load ptr, ptr %2, align 8
  %5 = getelementptr inbounds %"class.vcg::Point3", ptr %4, i32 0, i32 0
  %6 = getelementptr inbounds [3 x float], ptr %5, i64 0, i64 0
  %7 = load float, ptr %6, align 4
  %8 = getelementptr inbounds %"class.vcg::Point3", ptr %4, i32 0, i32 0
  %9 = getelementptr inbounds [3 x float], ptr %8, i64 0, i64 0
  %10 = load float, ptr %9, align 4
  %11 = getelementptr inbounds %"class.vcg::Point3", ptr %4, i32 0, i32 0
  %12 = getelementptr inbounds [3 x float], ptr %11, i64 0, i64 1
  %13 = load float, ptr %12, align 4
  %14 = getelementptr inbounds %"class.vcg::Point3", ptr %4, i32 0, i32 0
  %15 = getelementptr inbounds [3 x float], ptr %14, i64 0, i64 1
  %16 = load float, ptr %15, align 4
  %17 = fmul float %13, %16
  %18 = call float @llvm.fmuladd.f32(float %7, float %10, float %17)
  %19 = getelementptr inbounds %"class.vcg::Point3", ptr %4, i32 0, i32 0
  %20 = getelementptr inbounds [3 x float], ptr %19, i64 0, i64 2
  %21 = load float, ptr %20, align 4
  %22 = getelementptr inbounds %"class.vcg::Point3", ptr %4, i32 0, i32 0
  %23 = getelementptr inbounds [3 x float], ptr %22, i64 0, i64 2
  %24 = load float, ptr %23, align 4
  %25 = call float @llvm.fmuladd.f32(float %21, float %24, float %18)
  %26 = call noundef float @_ZN3vcg4math4SqrtEf(float noundef %25)
  store float %26, ptr %3, align 4
  %27 = load float, ptr %3, align 4
  %28 = fcmp ogt float %27, 0.000000e+00
  br i1 %28, label %29, label %45

29:                                               ; preds = %1
  %30 = load float, ptr %3, align 4
  %31 = getelementptr inbounds %"class.vcg::Point3", ptr %4, i32 0, i32 0
  %32 = getelementptr inbounds [3 x float], ptr %31, i64 0, i64 0
  %33 = load float, ptr %32, align 4
  %34 = fdiv float %33, %30
  store float %34, ptr %32, align 4
  %35 = load float, ptr %3, align 4
  %36 = getelementptr inbounds %"class.vcg::Point3", ptr %4, i32 0, i32 0
  %37 = getelementptr inbounds [3 x float], ptr %36, i64 0, i64 1
  %38 = load float, ptr %37, align 4
  %39 = fdiv float %38, %35
  store float %39, ptr %37, align 4
  %40 = load float, ptr %3, align 4
  %41 = getelementptr inbounds %"class.vcg::Point3", ptr %4, i32 0, i32 0
  %42 = getelementptr inbounds [3 x float], ptr %41, i64 0, i64 2
  %43 = load float, ptr %42, align 4
  %44 = fdiv float %43, %40
  store float %44, ptr %42, align 4
  br label %45

45:                                               ; preds = %29, %1
  ret ptr %4
}

; Function Attrs: mustprogress nounwind uwtable
define linkonce_odr void @_ZN3vcg4Ray3IfLb0EE12SetDirectionERKNS_6Point3IfEE(ptr noundef nonnull align 4 dereferenceable(24) %0, ptr noundef nonnull align 4 dereferenceable(12) %1) #0 comdat align 2 {
  %3 = alloca ptr, align 8
  %4 = alloca ptr, align 8
  store ptr %0, ptr %3, align 8
  store ptr %1, ptr %4, align 8
  %5 = load ptr, ptr %3, align 8
  %6 = load ptr, ptr %4, align 8
  %7 = getelementptr inbounds %"class.vcg::Ray3", ptr %5, i32 0, i32 1
  call void @llvm.memcpy.p0.p0.i64(ptr align 4 %7, ptr align 4 %6, i64 12, i1 false)
  ret void
}

; Function Attrs: mustprogress nounwind uwtable
define linkonce_odr void @_ZN3vcg4Ray3IfLb0EE9SetOriginERKNS_6Point3IfEE(ptr noundef nonnull align 4 dereferenceable(24) %0, ptr noundef nonnull align 4 dereferenceable(12) %1) #0 comdat align 2 {
  %3 = alloca ptr, align 8
  %4 = alloca ptr, align 8
  store ptr %0, ptr %3, align 8
  store ptr %1, ptr %4, align 8
  %5 = load ptr, ptr %3, align 8
  %6 = load ptr, ptr %4, align 8
  %7 = getelementptr inbounds %"class.vcg::Ray3", ptr %5, i32 0, i32 0
  call void @llvm.memcpy.p0.p0.i64(ptr align 4 %7, ptr align 4 %6, i64 12, i1 false)
  ret void
}

; Function Attrs: mustprogress nounwind uwtable
define linkonce_odr void @_ZN3vcg6Point3IfEC2Ev(ptr noundef nonnull align 4 dereferenceable(12) %0) unnamed_addr #0 comdat align 2 {
  %2 = alloca ptr, align 8
  store ptr %0, ptr %2, align 8
  ret void
}

; Function Attrs: mustprogress uwtable
define linkonce_odr noundef nonnull align 4 dereferenceable(24) ptr @_ZN3vcg4Ray3IfLb0EE9NormalizeEv(ptr noundef nonnull align 4 dereferenceable(24) %0) #3 comdat align 2 {
  %2 = alloca ptr, align 8
  store ptr %0, ptr %2, align 8
  %3 = load ptr, ptr %2, align 8
  %4 = getelementptr inbounds %"class.vcg::Ray3", ptr %3, i32 0, i32 1
  %5 = call noundef nonnull align 4 dereferenceable(12) ptr @_ZN3vcg6Point3IfE9NormalizeEv(ptr noundef nonnull align 4 dereferenceable(12) %4)
  ret ptr %3
}

; Function Attrs: mustprogress uwtable
define linkonce_odr void @_ZN3vcg4Ray3IfLb0EEC2ERKNS_6Point3IfEES5_(ptr noundef nonnull align 4 dereferenceable(24) %0, ptr noundef nonnull align 4 dereferenceable(12) %1, ptr noundef nonnull align 4 dereferenceable(12) %2) unnamed_addr #3 comdat align 2 {
  %4 = alloca ptr, align 8
  %5 = alloca ptr, align 8
  %6 = alloca ptr, align 8
  store ptr %0, ptr %4, align 8
  store ptr %1, ptr %5, align 8
  store ptr %2, ptr %6, align 8
  %7 = load ptr, ptr %4, align 8
  %8 = getelementptr inbounds %"class.vcg::Ray3", ptr %7, i32 0, i32 0
  call void @_ZN3vcg6Point3IfEC2Ev(ptr noundef nonnull align 4 dereferenceable(12) %8)
  %9 = getelementptr inbounds %"class.vcg::Ray3", ptr %7, i32 0, i32 1
  call void @_ZN3vcg6Point3IfEC2Ev(ptr noundef nonnull align 4 dereferenceable(12) %9)
  %10 = load ptr, ptr %5, align 8
  call void @_ZN3vcg4Ray3IfLb0EE9SetOriginERKNS_6Point3IfEE(ptr noundef nonnull align 4 dereferenceable(24) %7, ptr noundef nonnull align 4 dereferenceable(12) %10)
  %11 = load ptr, ptr %6, align 8
  call void @_ZN3vcg4Ray3IfLb0EE12SetDirectionERKNS_6Point3IfEE(ptr noundef nonnull align 4 dereferenceable(24) %7, ptr noundef nonnull align 4 dereferenceable(12) %11)
  ret void
}

; Function Attrs: mustprogress nounwind uwtable
define linkonce_odr noundef nonnull align 4 dereferenceable(12) ptr @_ZNK3vcg5Line3IfLb0EE9DirectionEv(ptr noundef nonnull align 4 dereferenceable(24) %0) #0 comdat align 2 {
  %2 = alloca ptr, align 8
  store ptr %0, ptr %2, align 8
  %3 = load ptr, ptr %2, align 8
  %4 = getelementptr inbounds %"class.vcg::Line3", ptr %3, i32 0, i32 1
  ret ptr %4
}

; Function Attrs: mustprogress nounwind uwtable
define linkonce_odr noundef nonnull align 4 dereferenceable(12) ptr @_ZNK3vcg5Line3IfLb0EE6OriginEv(ptr noundef nonnull align 4 dereferenceable(24) %0) #0 comdat align 2 {
  %2 = alloca ptr, align 8
  store ptr %0, ptr %2, align 8
  %3 = load ptr, ptr %2, align 8
  %4 = getelementptr inbounds %"class.vcg::Line3", ptr %3, i32 0, i32 0
  ret ptr %4
}

; Function Attrs: mustprogress uwtable
define void @_ZN3vcg10trackutils8line2rayERKNS_5Line3IfLb0EEE(ptr dead_on_unwind noalias writable sret(%"class.vcg::Ray3") align 4 %0, ptr noundef nonnull align 4 dereferenceable(24) %1) #3 {
  %3 = alloca ptr, align 8
  store ptr %1, ptr %3, align 8
  %4 = load ptr, ptr %3, align 8
  %5 = call noundef nonnull align 4 dereferenceable(12) ptr @_ZNK3vcg5Line3IfLb0EE6OriginEv(ptr noundef nonnull align 4 dereferenceable(24) %4)
  %6 = load ptr, ptr %3, align 8
  %7 = call noundef nonnull align 4 dereferenceable(12) ptr @_ZNK3vcg5Line3IfLb0EE9DirectionEv(ptr noundef nonnull align 4 dereferenceable(24) %6)
  call void @_ZN3vcg4Ray3IfLb0EEC2ERKNS_6Point3IfEES5_(ptr noundef nonnull align 4 dereferenceable(24) %0, ptr noundef nonnull align 4 dereferenceable(12) %5, ptr noundef nonnull align 4 dereferenceable(12) %7)
  %8 = call noundef nonnull align 4 dereferenceable(24) ptr @_ZN3vcg4Ray3IfLb0EE9NormalizeEv(ptr noundef nonnull align 4 dereferenceable(24) %0)
  ret void
}