; Function Attrs: mustprogress nofree norecurse nosync nounwind willreturn memory(argmem: readwrite) uwtable
define void @_ZN3vcg10trackutils8line2rayERKNS_5Line3IfLb0EEE(ptr dead_on_unwind noalias nocapture writable sret(%"class.vcg::Ray3") align 4 %0, ptr nocapture noundef nonnull readonly align 4 dereferenceable(24) %1) local_unnamed_addr #7 {
  %3 = getelementptr inbounds i8, ptr %1, i64 12
  tail call void @llvm.memcpy.p0.p0.i64(ptr noundef nonnull align 4 dereferenceable(12) %0, ptr noundef nonnull align 4 dereferenceable(12) %1, i64 12, i1 false)
  %4 = getelementptr inbounds i8, ptr %0, i64 12
  tail call void @llvm.memcpy.p0.p0.i64(ptr noundef nonnull align 4 dereferenceable(12) %4, ptr noundef nonnull align 4 dereferenceable(12) %3, i64 12, i1 false)
  %5 = load <2 x float>, ptr %4, align 4
  %6 = fmul <2 x float> %5, %5
  %7 = extractelement <2 x float> %6, i64 1
  %8 = extractelement <2 x float> %5, i64 0
  %9 = tail call float @llvm.fmuladd.f32(float %8, float %8, float %7)
  %10 = getelementptr inbounds i8, ptr %0, i64 20
  %11 = load float, ptr %10, align 4
  %12 = tail call float @llvm.fmuladd.f32(float %11, float %11, float %9)
  %sqrt.i.i = tail call float @llvm.sqrt.f32(float %12)
  %13 = fcmp ogt float %sqrt.i.i, 0.000000e+00
  br i1 %13, label %14, label %_ZN3vcg4Ray3IfLb0EE9NormalizeEv.exit

14:                                               ; preds = %2
  %15 = insertelement <2 x float> poison, float %sqrt.i.i, i64 0
  %16 = shufflevector <2 x float> %15, <2 x float> poison, <2 x i32> zeroinitializer
  %17 = fdiv <2 x float> %5, %16
  store <2 x float> %17, ptr %4, align 4
  %18 = fdiv float %11, %sqrt.i.i
  store float %18, ptr %10, align 4
  br label %_ZN3vcg4Ray3IfLb0EE9NormalizeEv.exit

_ZN3vcg4Ray3IfLb0EE9NormalizeEv.exit:             ; preds = %2, %14
  ret void
}